; Function Attrs: mustprogress uwtable
define void @_ZN6LibRaw22android_tight_load_rawEv(ptr noundef nonnull align 8 dereferenceable(767680) %0) local_unnamed_addr #0 align 2 {
  %2 = getelementptr inbounds nuw i8, ptr %0, i64 16
  %3 = getelementptr inbounds nuw i8, ptr %0, i64 18
  %4 = load i16, ptr %3, align 2, !tbaa !72
  %5 = zext i16 %4 to i32
  %6 = mul nsw i32 %5, -5
  %7 = ashr i32 %6, 2
  %8 = and i32 %7, -8
  %9 = sub nsw i32 0, %8
  %10 = zext nneg i32 %9 to i64
  %11 = tail call noundef ptr @_ZN6LibRaw6callocEmm(ptr noundef nonnull align 8 dereferenceable(767680) %0, i64 noundef %10, i64 noundef 1)
  %12 = load i16, ptr %2, align 8, !tbaa !78
  %.not = icmp eq i16 %12, 0
  br i1 %.not, label %._crit_edge28, label %.lr.ph

.lr.ph:                                           ; preds = %1
  %13 = getelementptr inbounds nuw i8, ptr %0, i64 381416
  %14 = getelementptr inbounds nuw i8, ptr %0, i64 193648
  br label %15

15:                                               ; preds = %.lr.ph, %._crit_edge
  %.02126 = phi i32 [ 0, %.lr.ph ], [ %49, %._crit_edge ]
  %16 = load ptr, ptr %13, align 8, !tbaa !79
  %17 = load ptr, ptr %16, align 8, !tbaa !80
  %18 = getelementptr inbounds nuw i8, ptr %17, i64 24
  %19 = load ptr, ptr %18, align 8
  %20 = tail call noundef i32 %19(ptr noundef nonnull align 8 dereferenceable(8) %16, ptr noundef %11, i64 noundef 1, i64 noundef %10)
  %21 = icmp slt i32 %20, %9
  br i1 %21, label %22, label %23

22:                                               ; preds = %15
  tail call void @_ZN6LibRaw6derrorEv(ptr noundef nonnull align 8 dereferenceable(767680) %0)
  br label %23

23:                                               ; preds = %22, %15
  %24 = load i16, ptr %3, align 2, !tbaa !72
  %.not29 = icmp eq i16 %24, 0
  br i1 %.not29, label %._crit_edge, label %.preheader.lr.ph

.preheader.lr.ph:                                 ; preds = %23
  %25 = load ptr, ptr %14, align 8, !tbaa !101
  br label %.preheader

.preheader:                                       ; preds = %.preheader.lr.ph, %44
  %indvars.iv31 = phi i64 [ 0, %.preheader.lr.ph ], [ %indvars.iv.next32, %44 ]
  %.02224 = phi ptr [ %11, %.preheader.lr.ph ], [ %45, %44 ]
  %26 = getelementptr inbounds nuw i8, ptr %.02224, i64 4
  %invariant.gep = getelementptr inbounds nuw i16, ptr %25, i64 %indvars.iv31
  br label %27

27:                                               ; preds = %.preheader, %27
  %indvars.iv = phi i64 [ 0, %.preheader ], [ %indvars.iv.next, %27 ]
  %28 = getelementptr inbounds nuw i8, ptr %.02224, i64 %indvars.iv
  %29 = load i8, ptr %28, align 1, !tbaa !103
  %30 = zext i8 %29 to i32
  %31 = shl nuw nsw i32 %30, 2
  %32 = load i8, ptr %26, align 1, !tbaa !103
  %33 = zext i8 %32 to i32
  %indvars.iv.tr = trunc i64 %indvars.iv to i32
  %34 = shl i32 %indvars.iv.tr, 1
  %35 = lshr i32 %33, %34
  %36 = and i32 %35, 3
  %37 = or disjoint i32 %36, %31
  %38 = trunc nuw nsw i32 %37 to i16
  %39 = load i16, ptr %3, align 2, !tbaa !72
  %40 = zext i16 %39 to i32
  %41 = mul nuw nsw i32 %.02126, %40
  %42 = zext nneg i32 %41 to i64
  %gep = getelementptr inbounds nuw i16, ptr %invariant.gep, i64 %indvars.iv
  %43 = getelementptr inbounds nuw i16, ptr %gep, i64 %42
  store i16 %38, ptr %43, align 2, !tbaa !77
  %indvars.iv.next = add nuw nsw i64 %indvars.iv, 1
  %exitcond.not = icmp eq i64 %indvars.iv.next, 4
  br i1 %exitcond.not, label %44, label %27, !llvm.loop !117

44:                                               ; preds = %27
  %45 = getelementptr inbounds nuw i8, ptr %.02224, i64 5
  %indvars.iv.next32 = add nuw nsw i64 %indvars.iv31, 4
  %46 = load i16, ptr %3, align 2, !tbaa !72
  %47 = zext i16 %46 to i64
  %48 = icmp samesign ult i64 %indvars.iv.next32, %47
  br i1 %48, label %.preheader, label %._crit_edge, !llvm.loop !118

._crit_edge:                                      ; preds = %44, %23
  %49 = add nuw nsw i32 %.02126, 1
  %50 = load i16, ptr %2, align 8, !tbaa !78
  %51 = zext i16 %50 to i32
  %52 = icmp samesign ult i32 %49, %51
  br i1 %52, label %15, label %._crit_edge28, !llvm.loop !119

._crit_edge28:                                    ; preds = %._crit_edge, %1
  tail call void @_ZN6LibRaw4freeEPv(ptr noundef nonnull align 8 dereferenceable(767680) %0, ptr noundef %11)
  ret void
}